; Function Attrs: nounwind uwtable
define internal range(i32 0, 2) i32 @sha1_internal_init(ptr noundef %0, ptr noundef %1) #0 {
  %3 = tail call i32 @ossl_prov_is_running() #5
  %.not = icmp eq i32 %3, 0
  br i1 %.not, label %sha1_set_ctx_params.exit, label %4

4:                                                ; preds = %2
  %5 = tail call i32 @SHA1_Init(ptr noundef %0) #5
  %.not3 = icmp eq i32 %5, 0
  %6 = icmp eq ptr %0, null
  %or.cond = or i1 %6, %.not3
  br i1 %or.cond, label %sha1_set_ctx_params.exit, label %7

7:                                                ; preds = %4
  %8 = icmp eq ptr %1, null
  br i1 %8, label %sha1_set_ctx_params.exit, label %ossl_param_is_empty.exit.i

ossl_param_is_empty.exit.i:                       ; preds = %7
  %9 = load ptr, ptr %1, align 8, !tbaa !11
  %.not.i = icmp eq ptr %9, null
  br i1 %.not.i, label %sha1_set_ctx_params.exit, label %10

10:                                               ; preds = %ossl_param_is_empty.exit.i
  %11 = tail call ptr @OSSL_PARAM_locate_const(ptr noundef nonnull %1, ptr noundef nonnull @.str.1) #5
  %.not11.i = icmp eq ptr %11, null
  br i1 %.not11.i, label %sha1_set_ctx_params.exit, label %12

12:                                               ; preds = %10
  %13 = getelementptr inbounds nuw i8, ptr %11, i64 8
  %14 = load i32, ptr %13, align 8, !tbaa !15
  %15 = icmp eq i32 %14, 5
  br i1 %15, label %16, label %sha1_set_ctx_params.exit

16:                                               ; preds = %12
  %17 = getelementptr inbounds nuw i8, ptr %11, i64 24
  %18 = load i64, ptr %17, align 8, !tbaa !16
  %19 = trunc i64 %18 to i32
  %20 = getelementptr inbounds nuw i8, ptr %11, i64 16
  %21 = load ptr, ptr %20, align 8, !tbaa !17
  %22 = tail call i32 @ossl_sha1_ctrl(ptr noundef nonnull %0, i32 noundef 29, i32 noundef %19, ptr noundef %21) #5
  %23 = icmp ne i32 %22, 0
  %24 = zext i1 %23 to i32
  br label %sha1_set_ctx_params.exit

sha1_set_ctx_params.exit:                         ; preds = %16, %12, %10, %ossl_param_is_empty.exit.i, %7, %4, %2
  %25 = phi i32 [ 0, %4 ], [ 0, %2 ], [ %24, %16 ], [ 1, %ossl_param_is_empty.exit.i ], [ 1, %12 ], [ 1, %10 ], [ 1, %7 ]
  ret i32 %25
}